; Function Attrs: mustprogress uwtable
define noundef range(i32 0, -1) i32 @_ZN7testing8internal6Random8GenerateEj(ptr noundef nonnull align 4 captures(none) dereferenceable(4) %0, i32 noundef %1) local_unnamed_addr #3 align 2 personality ptr @__gxx_personality_v0 {
  %3 = alloca %"class.testing::internal::GTestLog", align 4
  %4 = alloca %"class.testing::internal::GTestLog", align 4
  %5 = load i32, ptr %0, align 4, !tbaa !645
  %6 = mul i32 %5, 1103515245
  %7 = add i32 %6, 12345
  %8 = and i32 %7, 2147483647
  store i32 %8, ptr %0, align 4, !tbaa !645
  %.not = icmp eq i32 %1, 0
  br i1 %.not, label %9, label %14

9:                                                ; preds = %2
  call void @llvm.lifetime.start.p0(i64 4, ptr nonnull %3) #57
  call void @_ZN7testing8internal8GTestLogC1ENS0_16GTestLogSeverityEPKci(ptr noundef nonnull align 4 dereferenceable(4) %3, i32 noundef 3, ptr noundef nonnull @.str.136, i32 noundef 405)
  %10 = invoke noundef nonnull align 8 dereferenceable(8) ptr @_ZSt16__ostream_insertIcSt11char_traitsIcEERSt13basic_ostreamIT_T0_ES6_PKS3_l(ptr noundef nonnull align 8 dereferenceable(8) @_ZSt4cerr, ptr noundef nonnull @.str.137, i64 noundef 28)
          to label %_ZStlsISt11char_traitsIcEERSt13basic_ostreamIcT_ES5_PKc.exit unwind label %12

_ZStlsISt11char_traitsIcEERSt13basic_ostreamIcT_ES5_PKc.exit: ; preds = %9
  %11 = invoke noundef nonnull align 8 dereferenceable(8) ptr @_ZSt16__ostream_insertIcSt11char_traitsIcEERSt13basic_ostreamIT_T0_ES6_PKS3_l(ptr noundef nonnull align 8 dereferenceable(8) @_ZSt4cerr, ptr noundef nonnull @.str.138, i64 noundef 45)
          to label %.thread unwind label %12

.thread:                                          ; preds = %_ZStlsISt11char_traitsIcEERSt13basic_ostreamIcT_ES5_PKc.exit
  call void @_ZN7testing8internal8GTestLogD1Ev(ptr noundef nonnull align 4 dereferenceable(4) %3) #57
  call void @llvm.lifetime.end.p0(i64 4, ptr nonnull %3) #57
  br label %27

12:                                               ; preds = %_ZStlsISt11char_traitsIcEERSt13basic_ostreamIcT_ES5_PKc.exit, %9
  %13 = landingpad { ptr, i32 }
          cleanup
  call void @_ZN7testing8internal8GTestLogD1Ev(ptr noundef nonnull align 4 dereferenceable(4) %3) #57
  call void @llvm.lifetime.end.p0(i64 4, ptr nonnull %3) #57
  br label %30

14:                                               ; preds = %2
  %15 = icmp ult i32 %1, -2147483647
  br i1 %15, label %27, label %16

16:                                               ; preds = %14
  call void @llvm.lifetime.start.p0(i64 4, ptr nonnull %4) #57
  call void @_ZN7testing8internal8GTestLogC1ENS0_16GTestLogSeverityEPKci(ptr noundef nonnull align 4 dereferenceable(4) %4, i32 noundef 3, ptr noundef nonnull @.str.136, i32 noundef 406)
  %17 = invoke noundef nonnull align 8 dereferenceable(8) ptr @_ZSt16__ostream_insertIcSt11char_traitsIcEERSt13basic_ostreamIT_T0_ES6_PKS3_l(ptr noundef nonnull align 8 dereferenceable(8) @_ZSt4cerr, ptr noundef nonnull @.str.139, i64 noundef 37)
          to label %_ZStlsISt11char_traitsIcEERSt13basic_ostreamIcT_ES5_PKc.exit9 unwind label %25

_ZStlsISt11char_traitsIcEERSt13basic_ostreamIcT_ES5_PKc.exit9: ; preds = %16
  %18 = invoke noundef nonnull align 8 dereferenceable(8) ptr @_ZSt16__ostream_insertIcSt11char_traitsIcEERSt13basic_ostreamIT_T0_ES6_PKS3_l(ptr noundef nonnull align 8 dereferenceable(8) @_ZSt4cerr, ptr noundef nonnull @.str.140, i64 noundef 30)
          to label %_ZStlsISt11char_traitsIcEERSt13basic_ostreamIcT_ES5_PKc.exit10 unwind label %25

_ZStlsISt11char_traitsIcEERSt13basic_ostreamIcT_ES5_PKc.exit10: ; preds = %_ZStlsISt11char_traitsIcEERSt13basic_ostreamIcT_ES5_PKc.exit9
  %19 = zext i32 %1 to i64
  %20 = invoke noundef nonnull align 8 dereferenceable(8) ptr @_ZNSo9_M_insertImEERSoT_(ptr noundef nonnull align 8 dereferenceable(8) @_ZSt4cerr, i64 noundef %19)
          to label %_ZNSolsEj.exit unwind label %25

_ZNSolsEj.exit:                                   ; preds = %_ZStlsISt11char_traitsIcEERSt13basic_ostreamIcT_ES5_PKc.exit10
  %21 = invoke noundef nonnull align 8 dereferenceable(8) ptr @_ZSt16__ostream_insertIcSt11char_traitsIcEERSt13basic_ostreamIT_T0_ES6_PKS3_l(ptr noundef nonnull align 8 dereferenceable(8) %20, ptr noundef nonnull @.str.141, i64 noundef 17)
          to label %_ZStlsISt11char_traitsIcEERSt13basic_ostreamIcT_ES5_PKc.exit11 unwind label %25

_ZStlsISt11char_traitsIcEERSt13basic_ostreamIcT_ES5_PKc.exit11: ; preds = %_ZNSolsEj.exit
  %22 = invoke noundef nonnull align 8 dereferenceable(8) ptr @_ZSt16__ostream_insertIcSt11char_traitsIcEERSt13basic_ostreamIT_T0_ES6_PKS3_l(ptr noundef nonnull align 8 dereferenceable(8) %20, ptr noundef nonnull @.str.142, i64 noundef 42)
          to label %_ZStlsISt11char_traitsIcEERSt13basic_ostreamIcT_ES5_PKc.exit12 unwind label %25

_ZStlsISt11char_traitsIcEERSt13basic_ostreamIcT_ES5_PKc.exit12: ; preds = %_ZStlsISt11char_traitsIcEERSt13basic_ostreamIcT_ES5_PKc.exit11
  %23 = invoke noundef nonnull align 8 dereferenceable(8) ptr @_ZNSo9_M_insertImEERSoT_(ptr noundef nonnull align 8 dereferenceable(8) %20, i64 noundef 2147483648)
          to label %_ZNSolsEj.exit13 unwind label %25

_ZNSolsEj.exit13:                                 ; preds = %_ZStlsISt11char_traitsIcEERSt13basic_ostreamIcT_ES5_PKc.exit12
  %24 = invoke noundef nonnull align 8 dereferenceable(8) ptr @_ZSt16__ostream_insertIcSt11char_traitsIcEERSt13basic_ostreamIT_T0_ES6_PKS3_l(ptr noundef nonnull align 8 dereferenceable(8) %23, ptr noundef nonnull @.str.143, i64 noundef 2)
          to label %_ZStlsISt11char_traitsIcEERSt13basic_ostreamIcT_ES5_PKc.exit14 unwind label %25

_ZStlsISt11char_traitsIcEERSt13basic_ostreamIcT_ES5_PKc.exit14: ; preds = %_ZNSolsEj.exit13
  call void @_ZN7testing8internal8GTestLogD1Ev(ptr noundef nonnull align 4 dereferenceable(4) %4) #57
  call void @llvm.lifetime.end.p0(i64 4, ptr nonnull %4) #57
  br label %27

25:                                               ; preds = %_ZNSolsEj.exit13, %_ZStlsISt11char_traitsIcEERSt13basic_ostreamIcT_ES5_PKc.exit12, %_ZStlsISt11char_traitsIcEERSt13basic_ostreamIcT_ES5_PKc.exit11, %_ZNSolsEj.exit, %_ZStlsISt11char_traitsIcEERSt13basic_ostreamIcT_ES5_PKc.exit10, %_ZStlsISt11char_traitsIcEERSt13basic_ostreamIcT_ES5_PKc.exit9, %16
  %26 = landingpad { ptr, i32 }
          cleanup
  call void @_ZN7testing8internal8GTestLogD1Ev(ptr noundef nonnull align 4 dereferenceable(4) %4) #57
  call void @llvm.lifetime.end.p0(i64 4, ptr nonnull %4) #57
  br label %30

27:                                               ; preds = %.thread, %14, %_ZStlsISt11char_traitsIcEERSt13basic_ostreamIcT_ES5_PKc.exit14
  %28 = load i32, ptr %0, align 4, !tbaa !645
  %29 = urem i32 %28, %1
  ret i32 %29

30:                                               ; preds = %25, %12
  %.pn = phi { ptr, i32 } [ %26, %25 ], [ %13, %12 ]
  resume { ptr, i32 } %.pn
}